; Function Attrs: mustprogress nofree norecurse nosync nounwind willreturn memory(argmem: readwrite) uwtable
define noundef ptr @_ZNK32pxrInternal_v0_24__pxrReserved__10GfMatrix2d3GetEPA2_d(ptr noundef nonnull readonly align 8 captures(none) dereferenceable(32) %0, ptr noundef returned writeonly initializes((0, 32)) %1) local_unnamed_addr #2 align 2 {
  %3 = load double, ptr %0, align 8
  store double %3, ptr %1, align 8
  %4 = getelementptr inbounds nuw i8, ptr %0, i64 8
  %5 = load double, ptr %4, align 8
  %6 = getelementptr inbounds nuw i8, ptr %1, i64 8
  store double %5, ptr %6, align 8
  %7 = getelementptr inbounds nuw i8, ptr %0, i64 16
  %8 = load double, ptr %7, align 8
  %9 = getelementptr inbounds nuw i8, ptr %1, i64 16
  store double %8, ptr %9, align 8
  %10 = getelementptr inbounds nuw i8, ptr %0, i64 24
  %11 = load double, ptr %10, align 8
  %12 = getelementptr inbounds nuw i8, ptr %1, i64 24
  store double %11, ptr %12, align 8
  ret ptr %1
}